; Function Attrs: nofree norecurse nosync nounwind memory(argmem: readwrite) uwtable
define void @invert_vec(i32 noundef %0, ptr noundef captures(none) %1) local_unnamed_addr #3 {
  %3 = icmp sgt i32 %0, 0
  br i1 %3, label %.lr.ph.preheader, label %._crit_edge

.lr.ph.preheader:                                 ; preds = %2
  %wide.trip.count = zext nneg i32 %0 to i64
  br label %.lr.ph

.lr.ph:                                           ; preds = %.lr.ph.preheader, %9
  %indvars.iv = phi i64 [ 0, %.lr.ph.preheader ], [ %indvars.iv.next, %9 ]
  %4 = getelementptr inbounds nuw float, ptr %1, i64 %indvars.iv
  %5 = load float, ptr %4, align 4, !tbaa !35
  %6 = fcmp une float %5, 0.000000e+00
  br i1 %6, label %7, label %9

7:                                                ; preds = %.lr.ph
  %8 = fdiv float 1.000000e+00, %5
  store float %8, ptr %4, align 4, !tbaa !35
  br label %9

9:                                                ; preds = %.lr.ph, %7
  %indvars.iv.next = add nuw nsw i64 %indvars.iv, 1
  %exitcond.not = icmp eq i64 %indvars.iv.next, %wide.trip.count
  br i1 %exitcond.not, label %._crit_edge, label %.lr.ph, !llvm.loop !82

._crit_edge:                                      ; preds = %9, %2
  ret void
}